target datalayout = "e-m:e-p270:32:32-p271:32:32-p272:64:64-i64:64-i128:128-f80:128-n8:16:32:64-S128"
target triple = "x86_64-pc-linux-gnu"

%struct._packet_info = type { ptr, ptr, i32, i32, %struct.nstime_t, %struct.nstime_t, %struct.nstime_t, i8, ptr, ptr, ptr, ptr, %struct._address, %struct._address, %struct._address, %struct._address, %struct._address, %struct._address, i32, ptr, i8, [3 x i8], %struct.anon.1, i32, i32, i32, i32, ptr, i8, ptr, ptr, i16, i16, i32, i32, i16, i32, i32, ptr, ptr, ptr, i8, i8, i16, i16, i16, i32, i16, i16, ptr, ptr, ptr, ptr, ptr, i32, i32 }
%struct.nstime_t = type { i64, i32 }
%struct._address = type { i32, i32, ptr, ptr }
%struct.anon.1 = type { i8, [3 x i8] }
%struct._someip_info = type { i16, i16, i16, i16, i8, i8 }
%struct._someip_segment_key = type { %struct._address, %struct._address, i32, i32, %struct._someip_info }

; Function Attrs: inlinehint nounwind null_pointer_is_valid sspstrong uwtable
define internal void @clear_address(ptr noundef %0) #5 {
  %2 = alloca ptr, align 8
  store ptr %0, ptr %2, align 8
  %3 = load ptr, ptr %2, align 8
  %4 = getelementptr inbounds nuw %struct._address, ptr %3, i32 0, i32 0
  store i32 0, ptr %4, align 8
  %5 = load ptr, ptr %2, align 8
  %6 = getelementptr inbounds nuw %struct._address, ptr %5, i32 0, i32 1
  store i32 0, ptr %6, align 4
  %7 = load ptr, ptr %2, align 8
  %8 = getelementptr inbounds nuw %struct._address, ptr %7, i32 0, i32 2
  store ptr null, ptr %8, align 8
  %9 = load ptr, ptr %2, align 8
  %10 = getelementptr inbounds nuw %struct._address, ptr %9, i32 0, i32 3
  store ptr null, ptr %10, align 8
  ret void
}

; Function Attrs: inlinehint null_pointer_is_valid sspstrong uwtable
define internal void @alloc_address_wmem(ptr noundef %0, ptr noundef %1, i32 noundef %2, i32 noundef %3, ptr noundef %4) #9 {
  %6 = alloca ptr, align 8
  %7 = alloca ptr, align 8
  %8 = alloca i32, align 4
  %9 = alloca i32, align 4
  %10 = alloca ptr, align 8
  store ptr %0, ptr %6, align 8
  store ptr %1, ptr %7, align 8
  store i32 %2, ptr %8, align 4
  store i32 %3, ptr %9, align 4
  store ptr %4, ptr %10, align 8
  br label %11

11:                                               ; preds = %5
  br label %12

12:                                               ; preds = %11
  %13 = load ptr, ptr %7, align 8
  call void @clear_address(ptr noundef %13)
  %14 = load i32, ptr %8, align 4
  %15 = load ptr, ptr %7, align 8
  %16 = getelementptr inbounds nuw %struct._address, ptr %15, i32 0, i32 0
  store i32 %14, ptr %16, align 8
  %17 = load i32, ptr %9, align 4
  %18 = icmp eq i32 %17, 0
  br i1 %18, label %19, label %22

19:                                               ; preds = %12
  br label %20

20:                                               ; preds = %19
  br label %21

21:                                               ; preds = %20
  br label %39

22:                                               ; preds = %12
  br label %23

23:                                               ; preds = %22
  br label %24

24:                                               ; preds = %23
  br label %25

25:                                               ; preds = %24
  br label %26

26:                                               ; preds = %25
  %27 = load ptr, ptr %6, align 8
  %28 = load ptr, ptr %10, align 8
  %29 = load i32, ptr %9, align 4
  %30 = sext i32 %29 to i64
  %31 = call ptr @wmem_memdup(ptr noundef %27, ptr noundef %28, i64 noundef %30) #24
  %32 = load ptr, ptr %7, align 8
  %33 = getelementptr inbounds nuw %struct._address, ptr %32, i32 0, i32 3
  store ptr %31, ptr %33, align 8
  %34 = load ptr, ptr %7, align 8
  %35 = getelementptr inbounds nuw %struct._address, ptr %34, i32 0, i32 2
  store ptr %31, ptr %35, align 8
  %36 = load i32, ptr %9, align 4
  %37 = load ptr, ptr %7, align 8
  %38 = getelementptr inbounds nuw %struct._address, ptr %37, i32 0, i32 1
  store i32 %36, ptr %38, align 4
  br label %39

39:                                               ; preds = %26, %21
  ret void
}

; Function Attrs: inlinehint null_pointer_is_valid sspstrong uwtable
define internal void @copy_address_wmem(ptr noundef %0, ptr noundef %1, ptr noundef %2) #9 {
  %4 = alloca ptr, align 8
  %5 = alloca ptr, align 8
  %6 = alloca ptr, align 8
  store ptr %0, ptr %4, align 8
  store ptr %1, ptr %5, align 8
  store ptr %2, ptr %6, align 8
  %7 = load ptr, ptr %4, align 8
  %8 = load ptr, ptr %5, align 8
  %9 = load ptr, ptr %6, align 8
  %10 = getelementptr inbounds nuw %struct._address, ptr %9, i32 0, i32 0
  %11 = load i32, ptr %10, align 8
  %12 = load ptr, ptr %6, align 8
  %13 = getelementptr inbounds nuw %struct._address, ptr %12, i32 0, i32 1
  %14 = load i32, ptr %13, align 4
  %15 = load ptr, ptr %6, align 8
  %16 = getelementptr inbounds nuw %struct._address, ptr %15, i32 0, i32 2
  %17 = load ptr, ptr %16, align 8
  call void @alloc_address_wmem(ptr noundef %7, ptr noundef %8, i32 noundef %11, i32 noundef %14, ptr noundef %17)
  ret void
}

; Function Attrs: alwaysinline nounwind
define internal ptr @memcpy.inline(ptr noalias %0, ptr noalias %1, i64 %2) #10 {
  %4 = alloca ptr, align 8
  %5 = alloca ptr, align 8
  %6 = alloca i64, align 8
  store ptr %0, ptr %4, align 8
  store ptr %1, ptr %5, align 8
  store i64 %2, ptr %6, align 8
  %7 = load ptr, ptr %4, align 8
  %8 = load ptr, ptr %5, align 8
  %9 = load i64, ptr %6, align 8
  %10 = load ptr, ptr %4, align 8
  %11 = call i64 @llvm.objectsize.i64.p0(ptr %10, i1 false, i1 true, i1 true)
  %12 = call ptr @__memcpy_chk(ptr noundef %7, ptr noundef %8, i64 noundef %9, i64 noundef %11) #19
  ret ptr %12
}

; Function Attrs: inlinehint null_pointer_is_valid sspstrong uwtable
define internal void @copy_address(ptr noundef %0, ptr noundef %1) #9 {
  %3 = alloca ptr, align 8
  %4 = alloca ptr, align 8
  store ptr %0, ptr %3, align 8
  store ptr %1, ptr %4, align 8
  %5 = load ptr, ptr %3, align 8
  %6 = load ptr, ptr %4, align 8
  call void @copy_address_wmem(ptr noundef null, ptr noundef %5, ptr noundef %6)
  ret void
}

; Function Attrs: null_pointer_is_valid sspstrong uwtable
define internal ptr @someip_segment_persistent_key(ptr noundef %0, i32 noundef %1, ptr noundef %2) #0 {
  %4 = alloca ptr, align 8
  %5 = alloca i32, align 4
  %6 = alloca ptr, align 8
  %7 = alloca ptr, align 8
  %8 = alloca ptr, align 8
  store ptr %0, ptr %4, align 8
  store i32 %1, ptr %5, align 4
  store ptr %2, ptr %6, align 8
  call void @llvm.lifetime.start.p0(i64 8, ptr %7) #19
  %9 = load ptr, ptr %6, align 8
  store ptr %9, ptr %7, align 8
  call void @llvm.lifetime.start.p0(i64 8, ptr %8) #19
  %10 = call noalias ptr @g_slice_alloc(i64 noundef 72) #23
  store ptr %10, ptr %8, align 8
  %11 = load ptr, ptr %8, align 8
  %12 = getelementptr inbounds nuw %struct._someip_segment_key, ptr %11, i32 0, i32 0
  %13 = load ptr, ptr %4, align 8
  %14 = getelementptr inbounds nuw %struct._packet_info, ptr %13, i32 0, i32 16
  call void @copy_address(ptr noundef %12, ptr noundef %14)
  %15 = load ptr, ptr %8, align 8
  %16 = getelementptr inbounds nuw %struct._someip_segment_key, ptr %15, i32 0, i32 1
  %17 = load ptr, ptr %4, align 8
  %18 = getelementptr inbounds nuw %struct._packet_info, ptr %17, i32 0, i32 17
  call void @copy_address(ptr noundef %16, ptr noundef %18)
  %19 = load ptr, ptr %4, align 8
  %20 = getelementptr inbounds nuw %struct._packet_info, ptr %19, i32 0, i32 24
  %21 = load i32, ptr %20, align 4
  %22 = load ptr, ptr %8, align 8
  %23 = getelementptr inbounds nuw %struct._someip_segment_key, ptr %22, i32 0, i32 2
  store i32 %21, ptr %23, align 8
  %24 = load ptr, ptr %4, align 8
  %25 = getelementptr inbounds nuw %struct._packet_info, ptr %24, i32 0, i32 25
  %26 = load i32, ptr %25, align 8
  %27 = load ptr, ptr %8, align 8
  %28 = getelementptr inbounds nuw %struct._someip_segment_key, ptr %27, i32 0, i32 3
  store i32 %26, ptr %28, align 4
  %29 = load ptr, ptr %8, align 8
  %30 = getelementptr inbounds nuw %struct._someip_segment_key, ptr %29, i32 0, i32 4
  %31 = load ptr, ptr %7, align 8
  %32 = call ptr @memcpy.inline(ptr noundef %30, ptr noundef %31, i64 noundef 10) #19
  %33 = load ptr, ptr %8, align 8
  call void @llvm.lifetime.end.p0(i64 8, ptr %8) #19
  call void @llvm.lifetime.end.p0(i64 8, ptr %7) #19
  ret ptr %33
}